target datalayout = "e-m:e-p270:32:32-p271:32:32-p272:64:64-i64:64-i128:128-f80:128-n8:16:32:64-S128"
target triple = "x86_64-unknown-linux-gnu"

%"class.std::vector.64" = type { %"struct.std::_Vector_base.65" }
%"struct.std::_Vector_base.65" = type { %"struct.std::_Vector_base<unsigned long, std::allocator<unsigned long>>::_Vector_impl" }
%"struct.std::_Vector_base<unsigned long, std::allocator<unsigned long>>::_Vector_impl" = type { %"struct.std::_Vector_base<unsigned long, std::allocator<unsigned long>>::_Vector_impl_data" }
%"struct.std::_Vector_base<unsigned long, std::allocator<unsigned long>>::_Vector_impl_data" = type { ptr, ptr, ptr }
%"class.facebook::velox::DecodedVector" = type { i32, ptr, ptr, ptr, %"class.std::optional.131", ptr, i8, i8, i8, i8, i8, i32, %"class.std::vector.139", %"class.std::vector.64" }
%"class.std::optional.131" = type { %"struct.std::_Optional_base.132" }
%"struct.std::_Optional_base.132" = type { %"struct.std::_Optional_payload.134" }
%"struct.std::_Optional_payload.134" = type { %"struct.std::_Optional_payload_base.base.136", [7 x i8] }
%"struct.std::_Optional_payload_base.base.136" = type <{ %"union.std::_Optional_payload_base<const unsigned long *>::_Storage", i8 }>
%"union.std::_Optional_payload_base<const unsigned long *>::_Storage" = type { ptr }
%"class.std::vector.139" = type { %"struct.std::_Vector_base.140" }
%"struct.std::_Vector_base.140" = type { %"struct.std::_Vector_base<int, std::allocator<int>>::_Vector_impl" }
%"struct.std::_Vector_base<int, std::allocator<int>>::_Vector_impl" = type { %"struct.std::_Vector_base<int, std::allocator<int>>::_Vector_impl_data" }
%"struct.std::_Vector_base<int, std::allocator<int>>::_Vector_impl_data" = type { ptr, ptr, ptr }
%"class.facebook::velox::exec::VectorFunction" = type { ptr }
%"class.facebook::velox::functions::(anonymous namespace)::DecimalBaseFunction.909" = type <{ %"class.facebook::velox::exec::VectorFunction", i8, i8, [6 x i8] }>
%class.anon.914 = type { ptr, ptr, ptr, ptr }

@.str.27 = private unnamed_addr constant [8 x i8] c"Decimal\00", align 1

; Function Attrs: mustprogress nounwind uwtable
define linkonce_odr noundef { i64, i64 } @_ZN8facebook5velox15checkedMultiplyInEET_RKS2_S4_PKc(ptr noundef nonnull align 16 dereferenceable(16) %a, ptr noundef nonnull align 16 dereferenceable(16) %b, ptr noundef %typeName) #2 comdat {
entry:
  %retval = alloca i128, align 16
  %a.addr = alloca ptr, align 8
  %b.addr = alloca ptr, align 8
  %typeName.addr = alloca ptr, align 8
  %result = alloca i128, align 16
  %overflow = alloca i8, align 1
  store ptr %a, ptr %a.addr, align 8
  store ptr %b, ptr %b.addr, align 8
  store ptr %typeName, ptr %typeName.addr, align 8
  %0 = load ptr, ptr %a.addr, align 8
  %1 = load i128, ptr %0, align 16
  %2 = load ptr, ptr %b.addr, align 8
  %3 = load i128, ptr %2, align 16
  %4 = call { i128, i1 } @llvm.smul.with.overflow.i128(i128 %1, i128 %3)
  %5 = extractvalue { i128, i1 } %4, 1
  %6 = extractvalue { i128, i1 } %4, 0
  store i128 %6, ptr %result, align 16
  %frombool = zext i1 %5 to i8
  store i8 %frombool, ptr %overflow, align 1
  %7 = load i8, ptr %overflow, align 1
  %tobool = trunc i8 %7 to i1
  br i1 %tobool, label %if.then, label %if.end

if.then:                                          ; preds = %entry
  call void @llvm.trap()
  br label %if.end

if.end:                                           ; preds = %if.then, %entry
  %8 = load i128, ptr %result, align 16
  store i128 %8, ptr %retval, align 16
  %9 = load { i64, i64 }, ptr %retval, align 16
  ret { i64, i64 } %9
}

; Function Attrs: mustprogress nounwind uwtable
define linkonce_odr noundef { i64, i64 } @_ZN8facebook5velox11DecimalUtil17divideWithRoundUpInnnEET_RS3_RKT0_RKT1_bhh(ptr noundef nonnull align 16 dereferenceable(16) %r, ptr noundef nonnull align 16 dereferenceable(16) %a, ptr noundef nonnull align 16 dereferenceable(16) %b, i1 noundef zeroext %noRoundUp, i8 noundef zeroext %aRescale, i8 noundef zeroext %0) #2 comdat align 2 {
entry:
  %retval = alloca i128, align 16
  %r.addr = alloca ptr, align 8
  %a.addr = alloca ptr, align 8
  %b.addr = alloca ptr, align 8
  %noRoundUp.addr = alloca i8, align 1
  %aRescale.addr = alloca i8, align 1
  %.addr = alloca i8, align 1
  %resultSign = alloca i32, align 4
  %unsignedDividendRescaled = alloca i128, align 16
  %unsignedDivisor = alloca i128, align 16
  %ref.tmp = alloca i128, align 16
  %coerce = alloca i128, align 16
  %quotient = alloca i128, align 16
  %remainder = alloca i128, align 16
  store ptr %r, ptr %r.addr, align 8
  store ptr %a, ptr %a.addr, align 8
  store ptr %b, ptr %b.addr, align 8
  %frombool = zext i1 %noRoundUp to i8
  store i8 %frombool, ptr %noRoundUp.addr, align 1
  store i8 %aRescale, ptr %aRescale.addr, align 1
  store i8 %0, ptr %.addr, align 1
  %1 = load ptr, ptr %b.addr, align 8
  %2 = load i128, ptr %1, align 16
  %cmp = icmp ne i128 %2, 0
  %lnot = xor i1 %cmp, true
  br i1 %lnot, label %if.then, label %if.end

if.then:                                          ; preds = %entry
  call void @llvm.trap()
  br label %if.end

if.end:                                           ; preds = %if.then, %entry
  store i32 1, ptr %resultSign, align 4
  %3 = load ptr, ptr %a.addr, align 8
  %4 = load i128, ptr %3, align 16
  store i128 %4, ptr %unsignedDividendRescaled, align 16
  %5 = load ptr, ptr %a.addr, align 8
  %6 = load i128, ptr %5, align 16
  %cmp1 = icmp slt i128 %6, 0
  br i1 %cmp1, label %if.then2, label %if.end3

if.then2:                                         ; preds = %if.end
  store i32 -1, ptr %resultSign, align 4
  %7 = load i128, ptr %unsignedDividendRescaled, align 16
  %mul = mul nsw i128 %7, -1
  store i128 %mul, ptr %unsignedDividendRescaled, align 16
  br label %if.end3

if.end3:                                          ; preds = %if.then2, %if.end
  %8 = load ptr, ptr %b.addr, align 8
  %9 = load i128, ptr %8, align 16
  store i128 %9, ptr %unsignedDivisor, align 16
  %10 = load ptr, ptr %b.addr, align 8
  %11 = load i128, ptr %10, align 16
  %cmp4 = icmp slt i128 %11, 0
  br i1 %cmp4, label %if.then5, label %if.end8

if.then5:                                         ; preds = %if.end3
  %12 = load i32, ptr %resultSign, align 4
  %mul6 = mul nsw i32 %12, -1
  store i32 %mul6, ptr %resultSign, align 4
  %13 = load i128, ptr %unsignedDivisor, align 16
  %mul7 = mul nsw i128 %13, -1
  store i128 %mul7, ptr %unsignedDivisor, align 16
  br label %if.end8

if.end8:                                          ; preds = %if.then5, %if.end3
  %14 = load i8, ptr %aRescale.addr, align 1
  %idxprom = zext i8 %14 to i64
  %arrayidx = getelementptr inbounds [39 x i128], ptr @_ZN8facebook5velox11DecimalUtil12kPowersOfTenE, i64 0, i64 %idxprom
  %15 = load i128, ptr %arrayidx, align 16
  store i128 %15, ptr %ref.tmp, align 16
  %call = call noundef { i64, i64 } @_ZN8facebook5velox15checkedMultiplyInEET_RKS2_S4_PKc(ptr noundef nonnull align 16 dereferenceable(16) %unsignedDividendRescaled, ptr noundef nonnull align 16 dereferenceable(16) %ref.tmp, ptr noundef @.str.27)
  %16 = getelementptr inbounds { i64, i64 }, ptr %coerce, i32 0, i32 0
  %17 = extractvalue { i64, i64 } %call, 0
  store i64 %17, ptr %16, align 16
  %18 = getelementptr inbounds { i64, i64 }, ptr %coerce, i32 0, i32 1
  %19 = extractvalue { i64, i64 } %call, 1
  store i64 %19, ptr %18, align 8
  %20 = load i128, ptr %coerce, align 16
  store i128 %20, ptr %unsignedDividendRescaled, align 16
  %21 = load i128, ptr %unsignedDividendRescaled, align 16
  %22 = load i128, ptr %unsignedDivisor, align 16
  %div = sdiv i128 %21, %22
  store i128 %div, ptr %quotient, align 16
  %23 = load i128, ptr %unsignedDividendRescaled, align 16
  %24 = load i128, ptr %unsignedDivisor, align 16
  %rem = srem i128 %23, %24
  store i128 %rem, ptr %remainder, align 16
  %25 = load i8, ptr %noRoundUp.addr, align 1
  %tobool = trunc i8 %25 to i1
  br i1 %tobool, label %if.end12, label %land.lhs.true

land.lhs.true:                                    ; preds = %if.end8
  %26 = load i128, ptr %remainder, align 16
  %mul9 = mul nsw i128 %26, 2
  %27 = load i128, ptr %unsignedDivisor, align 16
  %cmp10 = icmp sge i128 %mul9, %27
  br i1 %cmp10, label %if.then11, label %if.end12

if.then11:                                        ; preds = %land.lhs.true
  %28 = load i128, ptr %quotient, align 16
  %inc = add nsw i128 %28, 1
  store i128 %inc, ptr %quotient, align 16
  br label %if.end12

if.end12:                                         ; preds = %if.then11, %land.lhs.true, %if.end8
  %29 = load i128, ptr %quotient, align 16
  %30 = load i32, ptr %resultSign, align 4
  %conv = sext i32 %30 to i128
  %mul13 = mul nsw i128 %29, %conv
  %31 = load ptr, ptr %r.addr, align 8
  store i128 %mul13, ptr %31, align 16
  %32 = load i128, ptr %remainder, align 16
  %33 = load i32, ptr %resultSign, align 4
  %conv14 = sext i32 %33 to i128
  %mul15 = mul nsw i128 %32, %conv14
  store i128 %mul15, ptr %retval, align 16
  %34 = load { i64, i64 }, ptr %retval, align 16
  ret { i64, i64 } %34
}

; Function Attrs: mustprogress nounwind uwtable
define linkonce_odr noundef i32 @_ZNK8facebook5velox13DecodedVector5indexEi(ptr noundef nonnull align 8 dereferenceable(120) %this, i32 noundef %idx) #2 comdat align 2 {
entry:
  %retval = alloca i32, align 4
  %this.addr = alloca ptr, align 8
  %idx.addr = alloca i32, align 4
  store ptr %this, ptr %this.addr, align 8
  store i32 %idx, ptr %idx.addr, align 4
  %this1 = load ptr, ptr %this.addr, align 8
  %isIdentityMapping_ = getelementptr inbounds %"class.facebook::velox::DecodedVector", ptr %this1, i32 0, i32 8
  %0 = load i8, ptr %isIdentityMapping_, align 2
  %tobool = trunc i8 %0 to i1
  br i1 %tobool, label %if.then, label %if.end

if.then:                                          ; preds = %entry
  %1 = load i32, ptr %idx.addr, align 4
  store i32 %1, ptr %retval, align 4
  br label %return

if.end:                                           ; preds = %entry
  %isConstantMapping_ = getelementptr inbounds %"class.facebook::velox::DecodedVector", ptr %this1, i32 0, i32 9
  %2 = load i8, ptr %isConstantMapping_, align 1
  %tobool2 = trunc i8 %2 to i1
  br i1 %tobool2, label %if.then3, label %if.end4

if.then3:                                         ; preds = %if.end
  %constantIndex_ = getelementptr inbounds %"class.facebook::velox::DecodedVector", ptr %this1, i32 0, i32 11
  %3 = load i32, ptr %constantIndex_, align 8
  store i32 %3, ptr %retval, align 4
  br label %return

if.end4:                                          ; preds = %if.end
  %indices_ = getelementptr inbounds %"class.facebook::velox::DecodedVector", ptr %this1, i32 0, i32 1
  %4 = load ptr, ptr %indices_, align 8
  %5 = load i32, ptr %idx.addr, align 4
  %idxprom = sext i32 %5 to i64
  %arrayidx = getelementptr inbounds i32, ptr %4, i64 %idxprom
  %6 = load i32, ptr %arrayidx, align 4
  store i32 %6, ptr %retval, align 4
  br label %return

return:                                           ; preds = %if.end4, %if.then3, %if.then
  %7 = load i32, ptr %retval, align 4
  ret i32 %7
}

; Function Attrs: mustprogress uwtable
define internal void @_ZN8facebook5velox9functions12_GLOBAL__N_16Divide5applyInnnEEvRT_RKT0_RKT1_hh(ptr noundef nonnull align 16 dereferenceable(16) %r, ptr noundef nonnull align 16 dereferenceable(16) %a, ptr noundef nonnull align 16 dereferenceable(16) %b, i8 noundef zeroext %aRescale, i8 noundef zeroext %0) #0 align 2 {
entry:
  %value.i = alloca i128, align 16
  %value.addr.i = alloca i128, align 16
  %r.addr = alloca ptr, align 8
  %a.addr = alloca ptr, align 8
  %b.addr = alloca ptr, align 8
  %aRescale.addr = alloca i8, align 1
  %.addr = alloca i8, align 1
  %coerce = alloca i128, align 16
  %coerce1 = alloca i128, align 16
  store ptr %r, ptr %r.addr, align 8
  store ptr %a, ptr %a.addr, align 8
  store ptr %b, ptr %b.addr, align 8
  store i8 %aRescale, ptr %aRescale.addr, align 1
  store i8 %0, ptr %.addr, align 1
  %1 = load ptr, ptr %r.addr, align 8
  %2 = load ptr, ptr %a.addr, align 8
  %3 = load ptr, ptr %b.addr, align 8
  %4 = load i8, ptr %aRescale.addr, align 1
  %call = call noundef { i64, i64 } @_ZN8facebook5velox11DecimalUtil17divideWithRoundUpInnnEET_RS3_RKT0_RKT1_bhh(ptr noundef nonnull align 16 dereferenceable(16) %1, ptr noundef nonnull align 16 dereferenceable(16) %2, ptr noundef nonnull align 16 dereferenceable(16) %3, i1 noundef zeroext false, i8 noundef zeroext %4, i8 noundef zeroext 0)
  %5 = getelementptr inbounds { i64, i64 }, ptr %coerce, i32 0, i32 0
  %6 = extractvalue { i64, i64 } %call, 0
  store i64 %6, ptr %5, align 16
  %7 = getelementptr inbounds { i64, i64 }, ptr %coerce, i32 0, i32 1
  %8 = extractvalue { i64, i64 } %call, 1
  store i64 %8, ptr %7, align 8
  %9 = load ptr, ptr %r.addr, align 8
  %10 = load i128, ptr %9, align 16
  store i128 %10, ptr %coerce1, align 16
  %11 = getelementptr inbounds { i64, i64 }, ptr %coerce1, i32 0, i32 0
  %12 = load i64, ptr %11, align 16
  %13 = getelementptr inbounds { i64, i64 }, ptr %coerce1, i32 0, i32 1
  %14 = load i64, ptr %13, align 8
  store i64 %12, ptr %value.i, align 16
  %15 = getelementptr inbounds { i64, i64 }, ptr %value.i, i32 0, i32 1
  store i64 %14, ptr %15, align 8
  %value1.i = load i128, ptr %value.i, align 16
  store i128 %value1.i, ptr %value.addr.i, align 16
  %16 = load i128, ptr %value.addr.i, align 16
  %cmp.i = icmp sge i128 %16, -99999999999999999999999999999999999999
  br i1 %cmp.i, label %land.rhs.i, label %land.end.i

land.rhs.i:                                       ; preds = %entry
  %17 = load i128, ptr %value.addr.i, align 16
  %cmp2.i = icmp sle i128 %17, 99999999999999999999999999999999999999
  br label %land.end.i

land.end.i:                                       ; preds = %land.rhs.i, %entry
  %18 = phi i1 [ false, %entry ], [ %cmp2.i, %land.rhs.i ]
  %lnot.i = xor i1 %18, true
  br i1 %lnot.i, label %if.then.i, label %_ZN8facebook5velox11DecimalUtil12valueInRangeEn.exit

if.then.i:                                        ; preds = %land.end.i
  call void @llvm.trap()
  br label %_ZN8facebook5velox11DecimalUtil12valueInRangeEn.exit

_ZN8facebook5velox11DecimalUtil12valueInRangeEn.exit: ; preds = %if.then.i, %land.end.i
  ret void
}

; Function Attrs: mustprogress uwtable
define linkonce_odr noundef { i64, i64 } @_ZNK8facebook5velox13DecodedVector7valueAtInEET_i(ptr noundef nonnull align 8 dereferenceable(120) %this, i32 noundef %idx) #0 comdat align 2 {
entry:
  %retval.i = alloca i128, align 16
  %serializedData.addr.i = alloca ptr, align 8
  %value.i = alloca i128, align 16
  %retval = alloca i128, align 16
  %this.addr = alloca ptr, align 8
  %idx.addr = alloca i32, align 4
  %valuePosition = alloca ptr, align 8
  %coerce = alloca i128, align 16
  store ptr %this, ptr %this.addr, align 8
  store i32 %idx, ptr %idx.addr, align 4
  %this1 = load ptr, ptr %this.addr, align 8
  %data_ = getelementptr inbounds %"class.facebook::velox::DecodedVector", ptr %this1, i32 0, i32 2
  %0 = load ptr, ptr %data_, align 8
  %1 = load i32, ptr %idx.addr, align 4
  %call = call noundef i32 @_ZNK8facebook5velox13DecodedVector5indexEi(ptr noundef nonnull align 8 dereferenceable(120) %this1, i32 noundef %1)
  %conv = sext i32 %call to i64
  %mul = mul i64 16, %conv
  %add.ptr = getelementptr inbounds i8, ptr %0, i64 %mul
  store ptr %add.ptr, ptr %valuePosition, align 8
  %2 = load ptr, ptr %valuePosition, align 8
  store ptr %2, ptr %serializedData.addr.i, align 8
  %3 = load ptr, ptr %serializedData.addr.i, align 8
  call void @llvm.memcpy.p0.p0.i64(ptr align 16 %value.i, ptr align 1 %3, i64 16, i1 false)
  %4 = load i128, ptr %value.i, align 16
  store i128 %4, ptr %retval.i, align 16
  %5 = load { i64, i64 }, ptr %retval.i, align 16
  %6 = getelementptr inbounds { i64, i64 }, ptr %coerce, i32 0, i32 0
  %7 = extractvalue { i64, i64 } %5, 0
  store i64 %7, ptr %6, align 16
  %8 = getelementptr inbounds { i64, i64 }, ptr %coerce, i32 0, i32 1
  %9 = extractvalue { i64, i64 } %5, 1
  store i64 %9, ptr %8, align 8
  %10 = load i128, ptr %coerce, align 16
  store i128 %10, ptr %retval, align 16
  %11 = load { i64, i64 }, ptr %retval, align 16
  ret { i64, i64 } %11
}

; Function Attrs: mustprogress uwtable
define internal void @_ZZNK8facebook5velox9functions12_GLOBAL__N_119DecimalBaseFunctionInnnNS2_6DivideEE5applyERKNS0_17SelectivityVectorERSt6vectorISt10shared_ptrINS0_10BaseVectorEESaISC_EERKSA_IKNS0_4TypeEERNS0_4exec7EvalCtxERSC_ENKUlT_E2_clIiEEDaSP_(ptr noundef nonnull align 8 dereferenceable(32) %this, i32 noundef %row) #0 align 2 {
entry:
  %this.addr = alloca ptr, align 8
  %row.addr = alloca i32, align 4
  %ref.tmp = alloca i128, align 16
  %coerce = alloca i128, align 16
  %ref.tmp2 = alloca i128, align 16
  %coerce4 = alloca i128, align 16
  store ptr %this, ptr %this.addr, align 8
  store i32 %row, ptr %row.addr, align 4
  %this1 = load ptr, ptr %this.addr, align 8
  %0 = getelementptr inbounds %class.anon.914, ptr %this1, i32 0, i32 0
  %1 = load ptr, ptr %0, align 8
  %2 = getelementptr inbounds %class.anon.914, ptr %this1, i32 0, i32 1
  %3 = load ptr, ptr %2, align 8
  %4 = load ptr, ptr %3, align 8
  %5 = load i32, ptr %row.addr, align 4
  %idxprom = sext i32 %5 to i64
  %arrayidx = getelementptr inbounds i128, ptr %4, i64 %idxprom
  %6 = getelementptr inbounds %class.anon.914, ptr %this1, i32 0, i32 2
  %7 = load ptr, ptr %6, align 8
  %8 = load ptr, ptr %7, align 8
  %9 = load i32, ptr %row.addr, align 4
  %call = call noundef { i64, i64 } @_ZNK8facebook5velox13DecodedVector7valueAtInEET_i(ptr noundef nonnull align 8 dereferenceable(120) %8, i32 noundef %9)
  %10 = getelementptr inbounds { i64, i64 }, ptr %coerce, i32 0, i32 0
  %11 = extractvalue { i64, i64 } %call, 0
  store i64 %11, ptr %10, align 16
  %12 = getelementptr inbounds { i64, i64 }, ptr %coerce, i32 0, i32 1
  %13 = extractvalue { i64, i64 } %call, 1
  store i64 %13, ptr %12, align 8
  %14 = load i128, ptr %coerce, align 16
  store i128 %14, ptr %ref.tmp, align 16
  %15 = getelementptr inbounds %class.anon.914, ptr %this1, i32 0, i32 3
  %16 = load ptr, ptr %15, align 8
  %17 = load ptr, ptr %16, align 8
  %18 = load i32, ptr %row.addr, align 4
  %call3 = call noundef { i64, i64 } @_ZNK8facebook5velox13DecodedVector7valueAtInEET_i(ptr noundef nonnull align 8 dereferenceable(120) %17, i32 noundef %18)
  %19 = getelementptr inbounds { i64, i64 }, ptr %coerce4, i32 0, i32 0
  %20 = extractvalue { i64, i64 } %call3, 0
  store i64 %20, ptr %19, align 16
  %21 = getelementptr inbounds { i64, i64 }, ptr %coerce4, i32 0, i32 1
  %22 = extractvalue { i64, i64 } %call3, 1
  store i64 %22, ptr %21, align 8
  %23 = load i128, ptr %coerce4, align 16
  store i128 %23, ptr %ref.tmp2, align 16
  %aRescale_ = getelementptr inbounds %"class.facebook::velox::functions::(anonymous namespace)::DecimalBaseFunction.909", ptr %1, i32 0, i32 1
  %24 = load i8, ptr %aRescale_, align 8
  %bRescale_ = getelementptr inbounds %"class.facebook::velox::functions::(anonymous namespace)::DecimalBaseFunction.909", ptr %1, i32 0, i32 2
  %25 = load i8, ptr %bRescale_, align 1
  call void @_ZN8facebook5velox9functions12_GLOBAL__N_16Divide5applyInnnEEvRT_RKT0_RKT1_hh(ptr noundef nonnull align 16 dereferenceable(16) %arrayidx, ptr noundef nonnull align 16 dereferenceable(16) %ref.tmp, ptr noundef nonnull align 16 dereferenceable(16) %ref.tmp2, i8 noundef zeroext %24, i8 noundef zeroext %25)
  ret void
}