; Function Attrs: mustprogress nounwind memory(readwrite, inaccessiblemem: write) uwtable
define internal fastcc void @_ZZNK8facebook5velox9functions12_GLOBAL__N_119DecimalBaseFunctionInnnNS2_6DivideEE5applyERKNS0_17SelectivityVectorERSt6vectorISt10shared_ptrINS0_10BaseVectorEESaISC_EERKSA_IKNS0_4TypeEERNS0_4exec7EvalCtxERSC_ENKUlT_E2_clIiEEDaSP_(ptr nocapture noundef nonnull readonly align 8 dereferenceable(32) %this, i32 noundef %row) unnamed_addr #17 align 2 {
entry:
  %0 = load ptr, ptr %this, align 8
  %1 = getelementptr inbounds i8, ptr %this, i64 8
  %2 = load ptr, ptr %1, align 8
  %3 = load ptr, ptr %2, align 8
  %idxprom = sext i32 %row to i64
  %arrayidx = getelementptr inbounds i128, ptr %3, i64 %idxprom
  %4 = getelementptr inbounds i8, ptr %this, i64 16
  %5 = load ptr, ptr %4, align 8
  %6 = load ptr, ptr %5, align 8
  %data_.i = getelementptr inbounds i8, ptr %6, i64 16
  %7 = load ptr, ptr %data_.i, align 8
  %isIdentityMapping_.i.i = getelementptr inbounds i8, ptr %6, i64 58
  %8 = load i8, ptr %isIdentityMapping_.i.i, align 2
  %9 = and i8 %8, 1
  %tobool.not.i.i = icmp eq i8 %9, 0
  br i1 %tobool.not.i.i, label %if.end.i.i, label %_ZNK8facebook5velox13DecodedVector7valueAtInEET_i.exit

if.end.i.i:                                       ; preds = %entry
  %isConstantMapping_.i.i = getelementptr inbounds i8, ptr %6, i64 59
  %10 = load i8, ptr %isConstantMapping_.i.i, align 1
  %11 = and i8 %10, 1
  %tobool2.not.i.i = icmp eq i8 %11, 0
  br i1 %tobool2.not.i.i, label %if.end4.i.i, label %if.then3.i.i

if.then3.i.i:                                     ; preds = %if.end.i.i
  %constantIndex_.i.i = getelementptr inbounds i8, ptr %6, i64 64
  %12 = load i32, ptr %constantIndex_.i.i, align 8
  br label %_ZNK8facebook5velox13DecodedVector7valueAtInEET_i.exit

if.end4.i.i:                                      ; preds = %if.end.i.i
  %indices_.i.i = getelementptr inbounds i8, ptr %6, i64 8
  %13 = load ptr, ptr %indices_.i.i, align 8
  %arrayidx.i.i = getelementptr inbounds i32, ptr %13, i64 %idxprom
  %14 = load i32, ptr %arrayidx.i.i, align 4
  br label %_ZNK8facebook5velox13DecodedVector7valueAtInEET_i.exit

_ZNK8facebook5velox13DecodedVector7valueAtInEET_i.exit: ; preds = %entry, %if.then3.i.i, %if.end4.i.i
  %retval.0.i.i = phi i32 [ %12, %if.then3.i.i ], [ %14, %if.end4.i.i ], [ %row, %entry ]
  %conv.i = sext i32 %retval.0.i.i to i64
  %mul.i = shl nsw i64 %conv.i, 4
  %add.ptr.i = getelementptr inbounds i8, ptr %7, i64 %mul.i
  %value.i.0.copyload.i = load i128, ptr %add.ptr.i, align 1
  %15 = getelementptr inbounds i8, ptr %this, i64 24
  %16 = load ptr, ptr %15, align 8
  %17 = load ptr, ptr %16, align 8
  %data_.i3 = getelementptr inbounds i8, ptr %17, i64 16
  %18 = load ptr, ptr %data_.i3, align 8
  %isIdentityMapping_.i.i4 = getelementptr inbounds i8, ptr %17, i64 58
  %19 = load i8, ptr %isIdentityMapping_.i.i4, align 2
  %20 = and i8 %19, 1
  %tobool.not.i.i5 = icmp eq i8 %20, 0
  br i1 %tobool.not.i.i5, label %if.end.i.i16, label %_ZNK8facebook5velox13DecodedVector7valueAtInEET_i.exit25

if.end.i.i16:                                     ; preds = %_ZNK8facebook5velox13DecodedVector7valueAtInEET_i.exit
  %isConstantMapping_.i.i17 = getelementptr inbounds i8, ptr %17, i64 59
  %21 = load i8, ptr %isConstantMapping_.i.i17, align 1
  %22 = and i8 %21, 1
  %tobool2.not.i.i18 = icmp eq i8 %22, 0
  br i1 %tobool2.not.i.i18, label %if.end4.i.i21, label %if.then3.i.i19

if.then3.i.i19:                                   ; preds = %if.end.i.i16
  %constantIndex_.i.i20 = getelementptr inbounds i8, ptr %17, i64 64
  %23 = load i32, ptr %constantIndex_.i.i20, align 8
  br label %_ZNK8facebook5velox13DecodedVector7valueAtInEET_i.exit25

if.end4.i.i21:                                    ; preds = %if.end.i.i16
  %indices_.i.i22 = getelementptr inbounds i8, ptr %17, i64 8
  %24 = load ptr, ptr %indices_.i.i22, align 8
  %arrayidx.i.i24 = getelementptr inbounds i32, ptr %24, i64 %idxprom
  %25 = load i32, ptr %arrayidx.i.i24, align 4
  br label %_ZNK8facebook5velox13DecodedVector7valueAtInEET_i.exit25

_ZNK8facebook5velox13DecodedVector7valueAtInEET_i.exit25: ; preds = %_ZNK8facebook5velox13DecodedVector7valueAtInEET_i.exit, %if.then3.i.i19, %if.end4.i.i21
  %retval.0.i.i6 = phi i32 [ %23, %if.then3.i.i19 ], [ %25, %if.end4.i.i21 ], [ %row, %_ZNK8facebook5velox13DecodedVector7valueAtInEET_i.exit ]
  %conv.i7 = sext i32 %retval.0.i.i6 to i64
  %mul.i8 = shl nsw i64 %conv.i7, 4
  %add.ptr.i9 = getelementptr inbounds i8, ptr %18, i64 %mul.i8
  %value.i.0.copyload.i10 = load i128, ptr %add.ptr.i9, align 1
  %cmp.not.i.i = icmp eq i128 %value.i.0.copyload.i10, 0
  br i1 %cmp.not.i.i, label %if.then.i3.i, label %if.end.i.i26

if.then.i3.i:                                     ; preds = %_ZNK8facebook5velox13DecodedVector7valueAtInEET_i.exit25
  tail call void @llvm.trap()
  unreachable

if.end.i.i26:                                     ; preds = %_ZNK8facebook5velox13DecodedVector7valueAtInEET_i.exit25
  %aRescale_ = getelementptr inbounds i8, ptr %0, i64 8
  %26 = load i8, ptr %aRescale_, align 8
  %spec.select.i.i = tail call i128 @llvm.abs.i128(i128 %value.i.0.copyload.i, i1 true)
  %idxprom.i.i27 = zext i8 %26 to i64
  %arrayidx.i.i28 = getelementptr inbounds [39 x i128], ptr @_ZN8facebook5velox11DecimalUtil12kPowersOfTenE, i64 0, i64 %idxprom.i.i27
  %27 = load i128, ptr %arrayidx.i.i28, align 16
  %28 = tail call { i128, i1 } @llvm.smul.with.overflow.i128(i128 %spec.select.i.i, i128 %27)
  %29 = extractvalue { i128, i1 } %28, 1
  br i1 %29, label %if.then.i.i.i, label %_ZN8facebook5velox11DecimalUtil17divideWithRoundUpInnnEET_RS3_RKT0_RKT1_bhh.exit.i

if.then.i.i.i:                                    ; preds = %if.end.i.i26
  tail call void @llvm.trap()
  unreachable

_ZN8facebook5velox11DecimalUtil17divideWithRoundUpInnnEET_RS3_RKT0_RKT1_bhh.exit.i: ; preds = %if.end.i.i26
  %cmp4.i.i = icmp slt i128 %value.i.0.copyload.i10, 0
  %cmp1.i.i = icmp slt i128 %value.i.0.copyload.i, 0
  %spec.select11.i.i = select i1 %cmp1.i.i, i32 -1, i32 1
  %mul6.i.i = sub nsw i32 0, %spec.select11.i.i
  %resultSign.1.i.i = select i1 %cmp4.i.i, i32 %mul6.i.i, i32 %spec.select11.i.i
  %unsignedDivisor.0.i.i = tail call i128 @llvm.abs.i128(i128 %value.i.0.copyload.i10, i1 true)
  %30 = extractvalue { i128, i1 } %28, 0
  %.frozen = freeze i128 %30
  %unsignedDivisor.0.i.i.frozen = freeze i128 %unsignedDivisor.0.i.i
  %div.i.i = sdiv i128 %.frozen, %unsignedDivisor.0.i.i.frozen
  %31 = mul i128 %div.i.i, %unsignedDivisor.0.i.i.frozen
  %rem.i.i.decomposed = sub i128 %.frozen, %31
  %mul9.i.i = shl nsw i128 %rem.i.i.decomposed, 1
  %cmp10.not.i.i = icmp sge i128 %mul9.i.i, %unsignedDivisor.0.i.i
  %inc.i.i = zext i1 %cmp10.not.i.i to i128
  %quotient.0.i.i = add nsw i128 %div.i.i, %inc.i.i
  %conv.i.i = sext i32 %resultSign.1.i.i to i128
  %mul13.i.i = mul nsw i128 %quotient.0.i.i, %conv.i.i
  store i128 %mul13.i.i, ptr %arrayidx, align 16
  %32 = add i128 %mul13.i.i, -100000000000000000000000000000000000000
  %33 = icmp ult i128 %32, 140282366920938463463374607431768211457
  br i1 %33, label %if.then.i.i, label %_ZN8facebook5velox9functions12_GLOBAL__N_16Divide5applyInnnEEvRT_RKT0_RKT1_hh.exit

if.then.i.i:                                      ; preds = %_ZN8facebook5velox11DecimalUtil17divideWithRoundUpInnnEET_RS3_RKT0_RKT1_bhh.exit.i
  tail call void @llvm.trap()
  unreachable

_ZN8facebook5velox9functions12_GLOBAL__N_16Divide5applyInnnEEvRT_RKT0_RKT1_hh.exit: ; preds = %_ZN8facebook5velox11DecimalUtil17divideWithRoundUpInnnEET_RS3_RKT0_RKT1_bhh.exit.i
  ret void
}